; ModuleID = '23/801.c'
source_filename = "23/801.c"
target datalayout = "e-m:e-p270:32:32-p271:32:32-p272:64:64-i64:64-f80:128-n8:16:32:64-S128"
target triple = "x86_64-pc-linux-gnu"

@.str = private unnamed_addr constant [3 x i8] c"%c\00", align 1
@.str.1 = private unnamed_addr constant [2 x i8] c" \00", align 1

; Function Attrs: noinline nounwind uwtable
define dso_local void @main() #0 {
  %1 = alloca [100 x i8], align 16
  %2 = alloca i8*, align 8
  %3 = alloca i8*, align 8
  %4 = alloca i8*, align 8
  %5 = alloca i32, align 4
  %6 = getelementptr inbounds [100 x i8], [100 x i8]* %1, i64 0, i64 0
  %7 = call i32 (i8*, ...) bitcast (i32 (...)* @gets to i32 (i8*, ...)*)(i8* %6)
  %8 = getelementptr inbounds [100 x i8], [100 x i8]* %1, i64 0, i64 0
  %9 = call i64 @strlen(i8* %8) #3
  %10 = trunc i64 %9 to i32
  store i32 %10, i32* %5, align 4
  %11 = getelementptr inbounds [100 x i8], [100 x i8]* %1, i64 0, i64 0
  %12 = load i32, i32* %5, align 4
  %13 = sext i32 %12 to i64
  %14 = getelementptr inbounds i8, i8* %11, i64 %13
  %15 = getelementptr inbounds i8, i8* %14, i64 -1
  store i8* %15, i8** %2, align 8
  %16 = getelementptr inbounds [100 x i8], [100 x i8]* %1, i64 0, i64 0
  %17 = load i32, i32* %5, align 4
  %18 = sext i32 %17 to i64
  %19 = getelementptr inbounds i8, i8* %16, i64 %18
  store i8* %19, i8** %3, align 8
  %20 = getelementptr inbounds [100 x i8], [100 x i8]* %1, i64 0, i64 0
  %21 = load i32, i32* %5, align 4
  %22 = sext i32 %21 to i64
  %23 = getelementptr inbounds i8, i8* %20, i64 %22
  %24 = getelementptr inbounds i8, i8* %23, i64 -1
  store i8* %24, i8** %2, align 8
  br label %25

25:                                               ; preds = %53, %0
  %26 = load i8*, i8** %2, align 8
  %27 = getelementptr inbounds [100 x i8], [100 x i8]* %1, i64 0, i64 0
  %28 = icmp uge i8* %26, %27
  br i1 %28, label %29, label %56

29:                                               ; preds = %25
  %30 = load i8*, i8** %2, align 8
  %31 = load i8, i8* %30, align 1
  %32 = sext i8 %31 to i32
  %33 = icmp eq i32 %32, 32
  br i1 %33, label %34, label %52

34:                                               ; preds = %29
  %35 = load i8*, i8** %2, align 8
  %36 = getelementptr inbounds i8, i8* %35, i64 1
  store i8* %36, i8** %4, align 8
  br label %37

37:                                               ; preds = %46, %34
  %38 = load i8*, i8** %4, align 8
  %39 = load i8*, i8** %3, align 8
  %40 = icmp ult i8* %38, %39
  br i1 %40, label %41, label %49

41:                                               ; preds = %37
  %42 = load i8*, i8** %4, align 8
  %43 = load i8, i8* %42, align 1
  %44 = sext i8 %43 to i32
  %45 = call i32 (i8*, ...) @printf(i8* getelementptr inbounds ([3 x i8], [3 x i8]* @.str, i64 0, i64 0), i32 %44)
  br label %46

46:                                               ; preds = %41
  %47 = load i8*, i8** %4, align 8
  %48 = getelementptr inbounds i8, i8* %47, i32 1
  store i8* %48, i8** %4, align 8
  br label %37

49:                                               ; preds = %37
  %50 = call i32 (i8*, ...) @printf(i8* getelementptr inbounds ([2 x i8], [2 x i8]* @.str.1, i64 0, i64 0))
  %51 = load i8*, i8** %2, align 8
  store i8* %51, i8** %3, align 8
  br label %52

52:                                               ; preds = %49, %29
  br label %53

53:                                               ; preds = %52
  %54 = load i8*, i8** %2, align 8
  %55 = getelementptr inbounds i8, i8* %54, i32 -1
  store i8* %55, i8** %2, align 8
  br label %25

56:                                               ; preds = %25
  %57 = getelementptr inbounds [100 x i8], [100 x i8]* %1, i64 0, i64 0
  store i8* %57, i8** %2, align 8
  %58 = getelementptr inbounds [100 x i8], [100 x i8]* %1, i64 0, i64 0
  store i8* %58, i8** %2, align 8
  br label %59

59:                                               ; preds = %76, %56
  %60 = load i8*, i8** %2, align 8
  %61 = load i8, i8* %60, align 1
  %62 = sext i8 %61 to i32
  %63 = icmp ne i32 %62, 32
  br i1 %63, label %64, label %74

64:                                               ; preds = %59
  %65 = load i8*, i8** %2, align 8
  %66 = load i8, i8* %65, align 1
  %67 = sext i8 %66 to i32
  %68 = icmp ne i32 %67, 0
  br i1 %68, label %69, label %74

69:                                               ; preds = %64
  %70 = load i8*, i8** %2, align 8
  %71 = load i8, i8* %70, align 1
  %72 = sext i8 %71 to i32
  %73 = call i32 (i8*, ...) @printf(i8* getelementptr inbounds ([3 x i8], [3 x i8]* @.str, i64 0, i64 0), i32 %72)
  br label %75

74:                                               ; preds = %64, %59
  br label %79

75:                                               ; preds = %69
  br label %76

76:                                               ; preds = %75
  %77 = load i8*, i8** %2, align 8
  %78 = getelementptr inbounds i8, i8* %77, i32 1
  store i8* %78, i8** %2, align 8
  br label %59

79:                                               ; preds = %74
  %80 = load i32, i32* %5, align 4
  %81 = sext i32 %80 to i64
  %82 = getelementptr inbounds [100 x i8], [100 x i8]* %1, i64 0, i64 %81
  store i8 0, i8* %82, align 1
  ret void
}

declare dso_local i32 @gets(...) #1

; Function Attrs: nounwind readonly
declare dso_local i64 @strlen(i8*) #2

declare dso_local i32 @printf(i8*, ...) #1


!llvm.module.flags = !{!0}
!llvm.ident = !{!1}

!0 = !{i32 1, !"wchar_size", i32 4}
!1 = !{!"clang version 10.0.0-4ubuntu1 "}
